; Function Attrs: mustprogress null_pointer_is_valid sspstrong uwtable
define noundef zeroext i1 @_ZNK12ProfileModel14checkIfDeletedEi(ptr noundef align 8 dereferenceable_or_null(104) %0, i32 noundef %1) local_unnamed_addr #0 align 2 {
  %3 = alloca %class.QModelIndex, align 8
  %4 = alloca %class.QModelIndex, align 8
  call void @llvm.lifetime.start.p0(i64 24, ptr nonnull %3) #26
  call void @llvm.lifetime.start.p0(i64 24, ptr nonnull %4) #26
  store i32 -1, ptr %4, align 8
  %5 = getelementptr inbounds nuw i8, ptr %4, i64 4
  store i32 -1, ptr %5, align 4
  %6 = getelementptr inbounds nuw i8, ptr %4, i64 8
  call void @llvm.memset.p0.i64(ptr noundef nonnull align 8 dereferenceable(16) %6, i8 0, i64 16, i1 false)
  %7 = load ptr, ptr %0, align 8
  %8 = getelementptr inbounds nuw i8, ptr %7, i64 96
  %9 = load ptr, ptr %8, align 8
  call void %9(ptr dead_on_unwind nonnull writable sret(%class.QModelIndex) align 8 %3, ptr noundef align 8 dereferenceable_or_null(16) %0, i32 noundef %1, i32 noundef 0, ptr noundef nonnull align 8 dereferenceable(24) %4)
  call void @llvm.lifetime.end.p0(i64 24, ptr nonnull %4) #26
  %10 = call noundef zeroext i1 @_ZNK12ProfileModel14checkIfDeletedERK11QModelIndex(ptr noundef align 8 dereferenceable_or_null(104) %0, ptr noundef nonnull align 8 dereferenceable(24) %3)
  call void @llvm.lifetime.end.p0(i64 24, ptr nonnull %3) #26
  ret i1 %10
}